target datalayout = "e-m:e-p270:32:32-p271:32:32-p272:64:64-i64:64-i128:128-f80:128-n8:16:32:64-S128"
target triple = "x86_64-pc-linux-gnu"

@ossl_property_parse_init.predefined_names = internal constant [6 x ptr] [ptr @.str.4, ptr @.str.5, ptr @.str.6, ptr @.str.7, ptr @.str.8, ptr @.str.9], align 16
@.str.10 = private unnamed_addr constant [4 x i8] c"yes\00", align 1
@.str.11 = private unnamed_addr constant [3 x i8] c"no\00", align 1

; Function Attrs: nounwind uwtable
define i32 @ossl_property_parse_init(ptr noundef %0) #0 {
  %2 = alloca i32, align 4
  %3 = alloca ptr, align 8
  %4 = alloca i64, align 8
  %5 = alloca i32, align 4
  store ptr %0, ptr %3, align 8, !tbaa !3
  call void @llvm.lifetime.start.p0(i64 8, ptr %4) #7
  store i64 0, ptr %4, align 8, !tbaa !33
  br label %6

6:                                                ; preds = %18, %1
  %7 = load i64, ptr %4, align 8, !tbaa !33
  %8 = icmp ult i64 %7, 6
  br i1 %8, label %9, label %21

9:                                                ; preds = %6
  %10 = load ptr, ptr %3, align 8, !tbaa !3
  %11 = load i64, ptr %4, align 8, !tbaa !33
  %12 = getelementptr inbounds nuw [6 x ptr], ptr @ossl_property_parse_init.predefined_names, i64 0, i64 %11
  %13 = load ptr, ptr %12, align 8, !tbaa !8
  %14 = call i32 @ossl_property_name(ptr noundef %10, ptr noundef %13, i32 noundef 1)
  %15 = icmp eq i32 %14, 0
  br i1 %15, label %16, label %17

16:                                               ; preds = %9
  br label %31

17:                                               ; preds = %9
  br label %18

18:                                               ; preds = %17
  %19 = load i64, ptr %4, align 8, !tbaa !33
  %20 = add i64 %19, 1
  store i64 %20, ptr %4, align 8, !tbaa !33
  br label %6, !llvm.loop !43

21:                                               ; preds = %6
  %22 = load ptr, ptr %3, align 8, !tbaa !3
  %23 = call i32 @ossl_property_value(ptr noundef %22, ptr noundef @.str.10, i32 noundef 1)
  %24 = icmp ne i32 %23, 1
  br i1 %24, label %29, label %25

25:                                               ; preds = %21
  %26 = load ptr, ptr %3, align 8, !tbaa !3
  %27 = call i32 @ossl_property_value(ptr noundef %26, ptr noundef @.str.11, i32 noundef 1)
  %28 = icmp ne i32 %27, 2
  br i1 %28, label %29, label %30

29:                                               ; preds = %25, %21
  br label %31

30:                                               ; preds = %25
  store i32 1, ptr %2, align 4
  store i32 1, ptr %5, align 4
  br label %32

31:                                               ; preds = %29, %16
  store i32 0, ptr %2, align 4
  store i32 1, ptr %5, align 4
  br label %32

32:                                               ; preds = %31, %30
  call void @llvm.lifetime.end.p0(i64 8, ptr %4) #7
  %33 = load i32, ptr %2, align 4
  ret i32 %33
}