; Function Attrs: nounwind uwtable
define range(i32 0, 2) i32 @ossl_property_parse_init(ptr noundef %0) local_unnamed_addr #0 {
  br label %4

2:                                                ; preds = %4
  %3 = add nuw nsw i64 %.08, 1
  %exitcond.not = icmp eq i64 %3, 6
  br i1 %exitcond.not, label %9, label %4, !llvm.loop !29

4:                                                ; preds = %1, %2
  %.08 = phi i64 [ 0, %1 ], [ %3, %2 ]
  %5 = getelementptr inbounds nuw [6 x ptr], ptr @ossl_property_parse_init.predefined_names, i64 0, i64 %.08
  %6 = load ptr, ptr %5, align 8, !tbaa !8
  %7 = tail call i32 @ossl_property_name(ptr noundef %0, ptr noundef %6, i32 noundef 1) #9
  %8 = icmp eq i32 %7, 0
  br i1 %8, label %.loopexit, label %2

9:                                                ; preds = %2
  %10 = tail call i32 @ossl_property_value(ptr noundef %0, ptr noundef nonnull @.str.10, i32 noundef 1) #9
  %.not = icmp eq i32 %10, 1
  br i1 %.not, label %11, label %.loopexit

11:                                               ; preds = %9
  %12 = tail call i32 @ossl_property_value(ptr noundef %0, ptr noundef nonnull @.str.11, i32 noundef 1) #9
  %.not7 = icmp eq i32 %12, 2
  br i1 %.not7, label %13, label %.loopexit

.loopexit:                                        ; preds = %4, %9, %11
  br label %13

13:                                               ; preds = %11, %.loopexit
  %.06 = phi i32 [ 0, %.loopexit ], [ 1, %11 ]
  ret i32 %.06
}